; ModuleID = 'source-C-CXX/12/174.cpp'
source_filename = "source-C-CXX/12/174.cpp"
target datalayout = "e-m:e-p270:32:32-p271:32:32-p272:64:64-i64:64-f80:128-n8:16:32:64-S128"
target triple = "x86_64-pc-linux-gnu"

%"class.std::ios_base::Init" = type { i8 }
%"class.std::basic_istream" = type { i32 (...)**, i64, %"class.std::basic_ios" }
%"class.std::basic_ios" = type { %"class.std::ios_base", %"class.std::basic_ostream"*, i8, i8, %"class.std::basic_streambuf"*, %"class.std::ctype"*, %"class.std::num_put"*, %"class.std::num_get"* }
%"class.std::ios_base" = type { i32 (...)**, i64, i64, i32, i32, i32, %"struct.std::ios_base::_Callback_list"*, %"struct.std::ios_base::_Words", [8 x %"struct.std::ios_base::_Words"], i32, %"struct.std::ios_base::_Words"*, %"class.std::locale" }
%"struct.std::ios_base::_Callback_list" = type { %"struct.std::ios_base::_Callback_list"*, void (i32, %"class.std::ios_base"*, i32)*, i32, i32 }
%"struct.std::ios_base::_Words" = type { i8*, i64 }
%"class.std::locale" = type { %"class.std::locale::_Impl"* }
%"class.std::locale::_Impl" = type { i32, %"class.std::locale::facet"**, i64, %"class.std::locale::facet"**, i8** }
%"class.std::locale::facet" = type <{ i32 (...)**, i32, [4 x i8] }>
%"class.std::basic_ostream" = type { i32 (...)**, %"class.std::basic_ios" }
%"class.std::basic_streambuf" = type { i32 (...)**, i8*, i8*, i8*, i8*, i8*, i8*, %"class.std::locale" }
%"class.std::ctype" = type <{ %"class.std::locale::facet.base", [4 x i8], %struct.__locale_struct*, i8, [7 x i8], i32*, i32*, i16*, i8, [256 x i8], [256 x i8], i8, [6 x i8] }>
%"class.std::locale::facet.base" = type <{ i32 (...)**, i32 }>
%struct.__locale_struct = type { [13 x %struct.__locale_data*], i16*, i32*, i32*, [13 x i8*] }
%struct.__locale_data = type opaque
%"class.std::num_put" = type { %"class.std::locale::facet.base", [4 x i8] }
%"class.std::num_get" = type { %"class.std::locale::facet.base", [4 x i8] }

@_ZStL8__ioinit = internal global %"class.std::ios_base::Init" zeroinitializer, align 1
@__dso_handle = external hidden global i8
@_ZSt3cin = external global %"class.std::basic_istream", align 8
@_ZSt4cout = external global %"class.std::basic_ostream", align 8
@.str = private unnamed_addr constant [2 x i8] c" \00", align 1
@llvm.global_ctors = appending global [1 x { i32, void ()*, i8* }] [{ i32, void ()*, i8* } { i32 65535, void ()* @_GLOBAL__sub_I_174.cpp, i8* null }]

declare void @_ZNSt8ios_base4InitC1Ev(%"class.std::ios_base::Init"* nonnull align 1 dereferenceable(1)) unnamed_addr #0

; Function Attrs: nounwind
declare void @_ZNSt8ios_base4InitD1Ev(%"class.std::ios_base::Init"* nonnull align 1 dereferenceable(1)) unnamed_addr #1

; Function Attrs: nofree nounwind
declare i32 @__cxa_atexit(void (i8*)*, i8*, i8*) local_unnamed_addr #2

; Function Attrs: mustprogress norecurse sspstrong uwtable
define dso_local i32 @main() local_unnamed_addr #3 {
  %1 = alloca i32, align 4
  %2 = bitcast i32* %1 to i8*
  call void @llvm.lifetime.start.p0i8(i64 4, i8* nonnull %2) #8
  %3 = call nonnull align 8 dereferenceable(16) %"class.std::basic_istream"* @_ZNSirsERi(%"class.std::basic_istream"* nonnull align 8 dereferenceable(16) @_ZSt3cin, i32* nonnull align 4 dereferenceable(4) %1)
  %4 = load i32, i32* %1, align 4, !tbaa !5
  %5 = add nsw i32 %4, 1
  %6 = zext i32 %5 to i64
  %7 = call i8* @llvm.stacksave()
  %8 = alloca i32, i64 %6, align 16
  %9 = bitcast i32* %8 to i8*
  %10 = shl nuw nsw i64 %6, 2
  call void @llvm.memset.p0i8.i64(i8* nonnull align 16 %9, i8 0, i64 %10, i1 false)
  %11 = load i32, i32* %1, align 4, !tbaa !5
  %12 = icmp slt i32 %11, 1
  br i1 %12, label %99, label %15

13:                                               ; preds = %15
  %14 = icmp slt i32 %20, 1
  br i1 %14, label %99, label %23

15:                                               ; preds = %0, %15
  %16 = phi i64 [ %19, %15 ], [ 1, %0 ]
  %17 = getelementptr inbounds i32, i32* %8, i64 %16
  %18 = call nonnull align 8 dereferenceable(16) %"class.std::basic_istream"* @_ZNSirsERi(%"class.std::basic_istream"* nonnull align 8 dereferenceable(16) @_ZSt3cin, i32* nonnull align 4 dereferenceable(4) %17)
  %19 = add nuw nsw i64 %16, 1
  %20 = load i32, i32* %1, align 4, !tbaa !5
  %21 = sext i32 %20 to i64
  %22 = icmp slt i64 %16, %21
  br i1 %22, label %15, label %13, !llvm.loop !9

23:                                               ; preds = %13, %92
  %24 = phi i64 [ %98, %92 ], [ 0, %13 ]
  %25 = phi i32 [ %93, %92 ], [ %20, %13 ]
  %26 = phi i64 [ %95, %92 ], [ 1, %13 ]
  %27 = phi i32 [ %94, %92 ], [ 0, %13 ]
  %28 = icmp ugt i64 %26, 1
  br i1 %28, label %29, label %82

29:                                               ; preds = %23
  %30 = add i64 %24, -1
  %31 = getelementptr inbounds i32, i32* %8, i64 %26
  %32 = load i32, i32* %31, align 4, !tbaa !5
  %33 = and i64 %24, 3
  %34 = icmp ult i64 %30, 3
  br i1 %34, label %63, label %35

35:                                               ; preds = %29
  %36 = and i64 %24, -4
  br label %37

37:                                               ; preds = %37, %35
  %38 = phi i64 [ 1, %35 ], [ %60, %37 ]
  %39 = phi i32 [ 0, %35 ], [ %59, %37 ]
  %40 = phi i64 [ %36, %35 ], [ %61, %37 ]
  %41 = getelementptr inbounds i32, i32* %8, i64 %38
  %42 = load i32, i32* %41, align 4, !tbaa !5
  %43 = icmp eq i32 %32, %42
  %44 = add nuw nsw i64 %38, 1
  %45 = getelementptr inbounds i32, i32* %8, i64 %44
  %46 = load i32, i32* %45, align 4, !tbaa !5
  %47 = icmp eq i32 %32, %46
  %48 = add nuw nsw i64 %38, 2
  %49 = getelementptr inbounds i32, i32* %8, i64 %48
  %50 = load i32, i32* %49, align 4, !tbaa !5
  %51 = icmp eq i32 %32, %50
  %52 = add nuw nsw i64 %38, 3
  %53 = getelementptr inbounds i32, i32* %8, i64 %52
  %54 = load i32, i32* %53, align 4, !tbaa !5
  %55 = icmp eq i32 %32, %54
  %56 = select i1 %55, i1 true, i1 %51
  %57 = select i1 %56, i1 true, i1 %47
  %58 = select i1 %57, i1 true, i1 %43
  %59 = select i1 %58, i32 1, i32 %39
  %60 = add nuw nsw i64 %38, 4
  %61 = add i64 %40, -4
  %62 = icmp eq i64 %61, 0
  br i1 %62, label %63, label %37, !llvm.loop !11

63:                                               ; preds = %37, %29
  %64 = phi i32 [ undef, %29 ], [ %59, %37 ]
  %65 = phi i64 [ 1, %29 ], [ %60, %37 ]
  %66 = phi i32 [ 0, %29 ], [ %59, %37 ]
  %67 = icmp eq i64 %33, 0
  br i1 %67, label %79, label %68

68:                                               ; preds = %63, %68
  %69 = phi i64 [ %76, %68 ], [ %65, %63 ]
  %70 = phi i32 [ %75, %68 ], [ %66, %63 ]
  %71 = phi i64 [ %77, %68 ], [ %33, %63 ]
  %72 = getelementptr inbounds i32, i32* %8, i64 %69
  %73 = load i32, i32* %72, align 4, !tbaa !5
  %74 = icmp eq i32 %32, %73
  %75 = select i1 %74, i32 1, i32 %70
  %76 = add nuw nsw i64 %69, 1
  %77 = add i64 %71, -1
  %78 = icmp eq i64 %77, 0
  br i1 %78, label %79, label %68, !llvm.loop !12

79:                                               ; preds = %68, %63
  %80 = phi i32 [ %64, %63 ], [ %75, %68 ]
  %81 = icmp eq i32 %80, 0
  br i1 %81, label %82, label %92

82:                                               ; preds = %23, %79
  %83 = icmp eq i32 %27, 0
  br i1 %83, label %86, label %84

84:                                               ; preds = %82
  %85 = call nonnull align 8 dereferenceable(8) %"class.std::basic_ostream"* @_ZSt16__ostream_insertIcSt11char_traitsIcEERSt13basic_ostreamIT_T0_ES6_PKS3_l(%"class.std::basic_ostream"* nonnull align 8 dereferenceable(8) @_ZSt4cout, i8* nonnull getelementptr inbounds ([2 x i8], [2 x i8]* @.str, i64 0, i64 0), i64 1)
  br label %86

86:                                               ; preds = %84, %82
  %87 = getelementptr inbounds i32, i32* %8, i64 %26
  %88 = load i32, i32* %87, align 4, !tbaa !5
  %89 = call nonnull align 8 dereferenceable(8) %"class.std::basic_ostream"* @_ZNSolsEi(%"class.std::basic_ostream"* nonnull align 8 dereferenceable(8) @_ZSt4cout, i32 %88)
  %90 = add nsw i32 %27, 1
  %91 = load i32, i32* %1, align 4, !tbaa !5
  br label %92

92:                                               ; preds = %79, %86
  %93 = phi i32 [ %91, %86 ], [ %25, %79 ]
  %94 = phi i32 [ %90, %86 ], [ %27, %79 ]
  %95 = add nuw nsw i64 %26, 1
  %96 = sext i32 %93 to i64
  %97 = icmp slt i64 %26, %96
  %98 = add i64 %24, 1
  br i1 %97, label %23, label %99, !llvm.loop !14

99:                                               ; preds = %92, %0, %13
  call void @llvm.stackrestore(i8* %7)
  call void @llvm.lifetime.end.p0i8(i64 4, i8* nonnull %2) #8
  ret i32 0
}

; Function Attrs: argmemonly mustprogress nofree nosync nounwind willreturn
declare void @llvm.lifetime.start.p0i8(i64 immarg, i8* nocapture) #4

declare nonnull align 8 dereferenceable(16) %"class.std::basic_istream"* @_ZNSirsERi(%"class.std::basic_istream"* nonnull align 8 dereferenceable(16), i32* nonnull align 4 dereferenceable(4)) local_unnamed_addr #0

; Function Attrs: mustprogress nofree nosync nounwind willreturn
declare i8* @llvm.stacksave() #5

; Function Attrs: argmemonly mustprogress nofree nounwind willreturn writeonly
declare void @llvm.memset.p0i8.i64(i8* nocapture writeonly, i8, i64, i1 immarg) #6

declare nonnull align 8 dereferenceable(8) %"class.std::basic_ostream"* @_ZNSolsEi(%"class.std::basic_ostream"* nonnull align 8 dereferenceable(8), i32) local_unnamed_addr #0

; Function Attrs: mustprogress nofree nosync nounwind willreturn
declare void @llvm.stackrestore(i8*) #5

; Function Attrs: argmemonly mustprogress nofree nosync nounwind willreturn
declare void @llvm.lifetime.end.p0i8(i64 immarg, i8* nocapture) #4

declare nonnull align 8 dereferenceable(8) %"class.std::basic_ostream"* @_ZSt16__ostream_insertIcSt11char_traitsIcEERSt13basic_ostreamIT_T0_ES6_PKS3_l(%"class.std::basic_ostream"* nonnull align 8 dereferenceable(8), i8*, i64) local_unnamed_addr #0

; Function Attrs: sspstrong uwtable
define internal void @_GLOBAL__sub_I_174.cpp() #7 section ".text.startup" {
  tail call void @_ZNSt8ios_base4InitC1Ev(%"class.std::ios_base::Init"* nonnull align 1 dereferenceable(1) @_ZStL8__ioinit)
  %1 = tail call i32 @__cxa_atexit(void (i8*)* bitcast (void (%"class.std::ios_base::Init"*)* @_ZNSt8ios_base4InitD1Ev to void (i8*)*), i8* getelementptr inbounds (%"class.std::ios_base::Init", %"class.std::ios_base::Init"* @_ZStL8__ioinit, i64 0, i32 0), i8* nonnull @__dso_handle) #8
  ret void
}


!llvm.module.flags = !{!0, !1, !2, !3}
!llvm.ident = !{!4}

!0 = !{i32 1, !"wchar_size", i32 4}
!1 = !{i32 7, !"PIC Level", i32 2}
!2 = !{i32 7, !"PIE Level", i32 2}
!3 = !{i32 7, !"uwtable", i32 1}
!4 = !{!"clang version 13.0.0"}
!5 = !{!6, !6, i64 0}
!6 = !{!"int", !7, i64 0}
!7 = !{!"omnipotent char", !8, i64 0}
!8 = !{!"Simple C++ TBAA"}
!9 = distinct !{!9, !10}
!10 = !{!"llvm.loop.mustprogress"}
!11 = distinct !{!11, !10}
!12 = distinct !{!12, !13}
!13 = !{!"llvm.loop.unroll.disable"}
!14 = distinct !{!14, !10}
